target datalayout = "e-m:e-p270:32:32-p271:32:32-p272:64:64-i64:64-i128:128-f80:128-n8:16:32:64-S128"
target triple = "x86_64-pc-linux-gnu"

%"struct.cv::utils::trace::details::Region::LocationStaticStorage" = type { ptr, ptr, ptr, i32, i32 }
%"class.cv::utils::trace::details::Region" = type <{ ptr, i32, [4 x i8] }>
%"class.std::__cxx11::basic_string" = type { %"struct.std::__cxx11::basic_string<char>::_Alloc_hider", i64, %union.anon }
%"struct.std::__cxx11::basic_string<char>::_Alloc_hider" = type { ptr }
%union.anon = type { i64, [8 x i8] }

@_ZZN2cv3hal7gemm32fEPKfmS2_mfS2_mfPfmiiiiE25__cv_trace_location_fn284 = internal constant %"struct.cv::utils::trace::details::Region::LocationStaticStorage" { ptr @_ZZN2cv3hal7gemm32fEPKfmS2_mfS2_mfPfmiiiiE31__cv_trace_location_extra_fn284, ptr @.str.7, ptr @.str.8, i32 284, i32 1 }, align 8
@.str.8 = private unnamed_addr constant [128 x i8] c"generated/home/dtcxzyw/WorkSpace/Projects/compilers/llvm-opt-benchmark/bench/opencv/opencv/modules/core/src/matmul.dispatch.cpp\00", align 1
@.str.9 = private unnamed_addr constant [67 x i8] c"HAL implementation gemm32f ==> hal_ni_gemm32f returned %d (0x%08x)\00", align 1
@__func__._ZN2cv3hal7gemm32fEPKfmS2_mfS2_mfPfmiiii = private unnamed_addr constant [8 x i8] c"gemm32f\00", align 1

; Function Attrs: mustprogress nounwind uwtable
define linkonce_odr hidden void @_ZNSt15__new_allocatorIcE10deallocateEPcm(ptr noundef nonnull align 1 dereferenceable(1) %0, ptr noundef %1, i64 noundef %2) #8 comdat align 2 {
  %4 = alloca ptr, align 8
  %5 = alloca ptr, align 8
  %6 = alloca i64, align 8
  store ptr %0, ptr %4, align 8, !tbaa !465
  store ptr %1, ptr %5, align 8, !tbaa !24
  store i64 %2, ptr %6, align 8, !tbaa !8
  %7 = load ptr, ptr %5, align 8, !tbaa !24
  call void @_ZdlPv(ptr noundef %7) #25
  ret void
}

; Function Attrs: mustprogress nounwind uwtable
define linkonce_odr hidden noundef ptr @_ZNSt19__ptr_traits_ptr_toIPKcS0_Lb0EE10pointer_toERS0_(ptr noundef nonnull align 1 dereferenceable(1) %0) #8 comdat align 2 {
  %2 = alloca ptr, align 8
  store ptr %0, ptr %2, align 8, !tbaa !24
  %3 = load ptr, ptr %2, align 8, !tbaa !24
  ret ptr %3
}

; Function Attrs: mustprogress uwtable
define linkonce_odr hidden void @_ZNSt16allocator_traitsISaIcEE10deallocateERS0_Pcm(ptr noundef nonnull align 1 dereferenceable(1) %0, ptr noundef %1, i64 noundef %2) #4 comdat align 2 {
  %4 = alloca ptr, align 8
  %5 = alloca ptr, align 8
  %6 = alloca i64, align 8
  store ptr %0, ptr %4, align 8, !tbaa !30
  store ptr %1, ptr %5, align 8, !tbaa !24
  store i64 %2, ptr %6, align 8, !tbaa !8
  %7 = load ptr, ptr %4, align 8, !tbaa !30
  %8 = load ptr, ptr %5, align 8, !tbaa !24
  %9 = load i64, ptr %6, align 8, !tbaa !8
  call void @_ZNSt15__new_allocatorIcE10deallocateEPcm(ptr noundef nonnull align 1 dereferenceable(1) %7, ptr noundef %8, i64 noundef %9)
  ret void
}

; Function Attrs: mustprogress nounwind uwtable
define available_externally noundef nonnull align 1 dereferenceable(1) ptr @_ZNSt7__cxx1112basic_stringIcSt11char_traitsIcESaIcEE16_M_get_allocatorEv(ptr noundef nonnull align 8 dereferenceable(32) %0) #8 align 2 {
  %2 = alloca ptr, align 8
  store ptr %0, ptr %2, align 8, !tbaa !32
  %3 = load ptr, ptr %2, align 8
  %4 = getelementptr inbounds nuw %"class.std::__cxx11::basic_string", ptr %3, i32 0, i32 0
  ret ptr %4
}

; Function Attrs: mustprogress nounwind uwtable
define available_externally noundef ptr @_ZNKSt7__cxx1112basic_stringIcSt11char_traitsIcESaIcEE13_M_local_dataEv(ptr noundef nonnull align 8 dereferenceable(32) %0) #8 align 2 {
  %2 = alloca ptr, align 8
  store ptr %0, ptr %2, align 8, !tbaa !32
  %3 = load ptr, ptr %2, align 8
  %4 = getelementptr inbounds nuw %"class.std::__cxx11::basic_string", ptr %3, i32 0, i32 2
  %5 = getelementptr inbounds [16 x i8], ptr %4, i64 0, i64 0
  %6 = call noundef ptr @_ZNSt19__ptr_traits_ptr_toIPKcS0_Lb0EE10pointer_toERS0_(ptr noundef nonnull align 1 dereferenceable(1) %5) #3
  ret ptr %6
}

; Function Attrs: mustprogress nounwind uwtable
define available_externally noundef ptr @_ZNKSt7__cxx1112basic_stringIcSt11char_traitsIcESaIcEE7_M_dataEv(ptr noundef nonnull align 8 dereferenceable(32) %0) #8 align 2 {
  %2 = alloca ptr, align 8
  store ptr %0, ptr %2, align 8, !tbaa !32
  %3 = load ptr, ptr %2, align 8
  %4 = getelementptr inbounds nuw %"class.std::__cxx11::basic_string", ptr %3, i32 0, i32 0
  %5 = getelementptr inbounds nuw %"struct.std::__cxx11::basic_string<char>::_Alloc_hider", ptr %4, i32 0, i32 0
  %6 = load ptr, ptr %5, align 8, !tbaa !470
  ret ptr %6
}

; Function Attrs: mustprogress nounwind uwtable
define available_externally void @_ZNSt7__cxx1112basic_stringIcSt11char_traitsIcESaIcEE10_M_destroyEm(ptr noundef nonnull align 8 dereferenceable(32) %0, i64 noundef %1) #8 align 2 personality ptr @__gxx_personality_v0 {
  %3 = alloca ptr, align 8
  %4 = alloca i64, align 8
  %5 = alloca ptr, align 8
  %6 = alloca i32, align 4
  store ptr %0, ptr %3, align 8, !tbaa !32
  store i64 %1, ptr %4, align 8, !tbaa !8
  %7 = load ptr, ptr %3, align 8
  %8 = invoke noundef nonnull align 1 dereferenceable(1) ptr @_ZNSt7__cxx1112basic_stringIcSt11char_traitsIcESaIcEE16_M_get_allocatorEv(ptr noundef nonnull align 8 dereferenceable(32) %7)
          to label %9 unwind label %14

9:                                                ; preds = %2
  %10 = call noundef ptr @_ZNKSt7__cxx1112basic_stringIcSt11char_traitsIcESaIcEE7_M_dataEv(ptr noundef nonnull align 8 dereferenceable(32) %7)
  %11 = load i64, ptr %4, align 8, !tbaa !8
  %12 = add i64 %11, 1
  invoke void @_ZNSt16allocator_traitsISaIcEE10deallocateERS0_Pcm(ptr noundef nonnull align 1 dereferenceable(1) %8, ptr noundef %10, i64 noundef %12)
          to label %13 unwind label %14

13:                                               ; preds = %9
  ret void

14:                                               ; preds = %9, %2
  %15 = landingpad { ptr, i32 }
          filter [0 x ptr] zeroinitializer
  %16 = extractvalue { ptr, i32 } %15, 0
  store ptr %16, ptr %5, align 8
  %17 = extractvalue { ptr, i32 } %15, 1
  store i32 %17, ptr %6, align 4
  br label %18

18:                                               ; preds = %14
  %19 = load ptr, ptr %5, align 8
  call void @__cxa_call_unexpected(ptr %19) #23
  unreachable
}

; Function Attrs: mustprogress uwtable
define available_externally noundef zeroext i1 @_ZNKSt7__cxx1112basic_stringIcSt11char_traitsIcESaIcEE11_M_is_localEv(ptr noundef nonnull align 8 dereferenceable(32) %0) #4 align 2 {
  %2 = alloca i1, align 1
  %3 = alloca ptr, align 8
  store ptr %0, ptr %3, align 8, !tbaa !32
  %4 = load ptr, ptr %3, align 8
  %5 = call noundef ptr @_ZNKSt7__cxx1112basic_stringIcSt11char_traitsIcESaIcEE7_M_dataEv(ptr noundef nonnull align 8 dereferenceable(32) %4)
  %6 = call noundef ptr @_ZNKSt7__cxx1112basic_stringIcSt11char_traitsIcESaIcEE13_M_local_dataEv(ptr noundef nonnull align 8 dereferenceable(32) %4)
  %7 = icmp eq ptr %5, %6
  br i1 %7, label %8, label %14

8:                                                ; preds = %1
  %9 = getelementptr inbounds nuw %"class.std::__cxx11::basic_string", ptr %4, i32 0, i32 1
  %10 = load i64, ptr %9, align 8, !tbaa !467
  %11 = icmp ugt i64 %10, 15
  br i1 %11, label %12, label %13

12:                                               ; preds = %8
  unreachable

13:                                               ; preds = %8
  store i1 true, ptr %2, align 1
  br label %15

14:                                               ; preds = %1
  store i1 false, ptr %2, align 1
  br label %15

15:                                               ; preds = %14, %13
  %16 = load i1, ptr %2, align 1
  ret i1 %16
}

; Function Attrs: mustprogress nounwind uwtable
define linkonce_odr hidden void @_ZNSt15__new_allocatorIcED2Ev(ptr noundef nonnull align 1 dereferenceable(1) %0) unnamed_addr #8 comdat align 2 {
  %2 = alloca ptr, align 8
  store ptr %0, ptr %2, align 8, !tbaa !465
  ret void
}

; Function Attrs: mustprogress uwtable
define available_externally void @_ZNSt7__cxx1112basic_stringIcSt11char_traitsIcESaIcEE10_M_disposeEv(ptr noundef nonnull align 8 dereferenceable(32) %0) #4 align 2 {
  %2 = alloca ptr, align 8
  store ptr %0, ptr %2, align 8, !tbaa !32
  %3 = load ptr, ptr %2, align 8
  %4 = call noundef zeroext i1 @_ZNKSt7__cxx1112basic_stringIcSt11char_traitsIcESaIcEE11_M_is_localEv(ptr noundef nonnull align 8 dereferenceable(32) %3)
  br i1 %4, label %8, label %5

5:                                                ; preds = %1
  %6 = getelementptr inbounds nuw %"class.std::__cxx11::basic_string", ptr %3, i32 0, i32 2
  %7 = load i64, ptr %6, align 8, !tbaa !63
  call void @_ZNSt7__cxx1112basic_stringIcSt11char_traitsIcESaIcEE10_M_destroyEm(ptr noundef nonnull align 8 dereferenceable(32) %3, i64 noundef %7) #3
  br label %8

8:                                                ; preds = %5, %1
  ret void
}

; Function Attrs: mustprogress uwtable
define hidden void @_ZN2cv12cpu_baseline7gemm32fEPKfmS2_mfS2_mfPfmiiii(ptr noundef %0, i64 noundef %1, ptr noundef %2, i64 noundef %3, float noundef %4, ptr noundef %5, i64 noundef %6, float noundef %7, ptr noundef %8, i64 noundef %9, i32 noundef %10, i32 noundef %11, i32 noundef %12, i32 noundef %13) #4 personality ptr @__gxx_personality_v0 {
  %15 = alloca ptr, align 8
  %16 = alloca i64, align 8
  %17 = alloca ptr, align 8
  %18 = alloca i64, align 8
  %19 = alloca float, align 4
  %20 = alloca ptr, align 8
  %21 = alloca i64, align 8
  %22 = alloca float, align 4
  %23 = alloca ptr, align 8
  %24 = alloca i64, align 8
  %25 = alloca i32, align 4
  %26 = alloca i32, align 4
  %27 = alloca i32, align 4
  %28 = alloca i32, align 4
  %29 = alloca %"class.cv::utils::trace::details::Region", align 8
  %30 = alloca ptr, align 8
  %31 = alloca i32, align 4
  store ptr %0, ptr %15, align 8, !tbaa !3
  store i64 %1, ptr %16, align 8, !tbaa !8
  store ptr %2, ptr %17, align 8, !tbaa !3
  store i64 %3, ptr %18, align 8, !tbaa !8
  store float %4, ptr %19, align 4, !tbaa !10
  store ptr %5, ptr %20, align 8, !tbaa !3
  store i64 %6, ptr %21, align 8, !tbaa !8
  store float %7, ptr %22, align 4, !tbaa !10
  store ptr %8, ptr %23, align 8, !tbaa !3
  store i64 %9, ptr %24, align 8, !tbaa !8
  store i32 %10, ptr %25, align 4, !tbaa !12
  store i32 %11, ptr %26, align 4, !tbaa !12
  store i32 %12, ptr %27, align 4, !tbaa !12
  store i32 %13, ptr %28, align 4, !tbaa !12
  call void @llvm.lifetime.start.p0(i64 16, ptr %29) #3
  call void @_ZN2cv5utils5trace7details6RegionC1ERKNS3_21LocationStaticStorageE(ptr noundef nonnull align 8 dereferenceable(12) %29, ptr noundef nonnull align 8 dereferenceable(32) @_ZZN2cv12cpu_baseline7gemm32fEPKfmS2_mfS2_mfPfmiiiiE26__cv_trace_location_fn1344)
  %32 = load ptr, ptr %15, align 8, !tbaa !3
  %33 = load i64, ptr %16, align 8, !tbaa !8
  %34 = load ptr, ptr %17, align 8, !tbaa !3
  %35 = load i64, ptr %18, align 8, !tbaa !8
  %36 = load float, ptr %19, align 4, !tbaa !10
  %37 = load ptr, ptr %20, align 8, !tbaa !3
  %38 = load i64, ptr %21, align 8, !tbaa !8
  %39 = load float, ptr %22, align 4, !tbaa !10
  %40 = load ptr, ptr %23, align 8, !tbaa !3
  %41 = load i64, ptr %24, align 8, !tbaa !8
  %42 = load i32, ptr %25, align 4, !tbaa !12
  %43 = load i32, ptr %26, align 4, !tbaa !12
  %44 = load i32, ptr %27, align 4, !tbaa !12
  %45 = load i32, ptr %28, align 4, !tbaa !12
  invoke void @_ZN2cv12cpu_baselineL12callGemmImplIfEEvPKT_mS4_mS2_S4_mS2_PS2_miiiii(ptr noundef %32, i64 noundef %33, ptr noundef %34, i64 noundef %35, float noundef %36, ptr noundef %37, i64 noundef %38, float noundef %39, ptr noundef %40, i64 noundef %41, i32 noundef %42, i32 noundef %43, i32 noundef %44, i32 noundef %45, i32 noundef 5)
          to label %46 unwind label %47

46:                                               ; preds = %14
  call void @_ZN2cv5utils5trace7details6RegionD2Ev(ptr noundef nonnull align 8 dereferenceable(12) %29) #3
  call void @llvm.lifetime.end.p0(i64 16, ptr %29) #3
  ret void

47:                                               ; preds = %14
  %48 = landingpad { ptr, i32 }
          cleanup
  %49 = extractvalue { ptr, i32 } %48, 0
  store ptr %49, ptr %30, align 8
  %50 = extractvalue { ptr, i32 } %48, 1
  store i32 %50, ptr %31, align 4
  call void @_ZN2cv5utils5trace7details6RegionD2Ev(ptr noundef nonnull align 8 dereferenceable(12) %29) #3
  call void @llvm.lifetime.end.p0(i64 16, ptr %29) #3
  br label %51

51:                                               ; preds = %47
  %52 = load ptr, ptr %30, align 8
  %53 = load i32, ptr %31, align 4
  %54 = insertvalue { ptr, i32 } poison, ptr %52, 0
  %55 = insertvalue { ptr, i32 } %54, i32 %53, 1
  resume { ptr, i32 } %55
}

; Function Attrs: mustprogress nounwind uwtable
define available_externally void @_ZNSt7__cxx1112basic_stringIcSt11char_traitsIcESaIcEED2Ev(ptr noundef nonnull align 8 dereferenceable(32) %0) unnamed_addr #8 align 2 personality ptr @__gxx_personality_v0 {
  %2 = alloca ptr, align 8
  store ptr %0, ptr %2, align 8, !tbaa !32
  %3 = load ptr, ptr %2, align 8
  invoke void @_ZNSt7__cxx1112basic_stringIcSt11char_traitsIcESaIcEE10_M_disposeEv(ptr noundef nonnull align 8 dereferenceable(32) %3)
          to label %4 unwind label %6

4:                                                ; preds = %1
  %5 = getelementptr inbounds nuw %"class.std::__cxx11::basic_string", ptr %3, i32 0, i32 0
  call void @_ZNSt15__new_allocatorIcED2Ev(ptr noundef nonnull align 8 dereferenceable(8) %5) #3
  ret void

6:                                                ; preds = %1
  %7 = landingpad { ptr, i32 }
          catch ptr null
  %8 = extractvalue { ptr, i32 } %7, 0
  call void @__clang_call_terminate(ptr %8) #22
  unreachable
}

; Function Attrs: inlinehint mustprogress nounwind uwtable
define linkonce_odr hidden noundef i32 @_Z14hal_ni_gemm32fPKfmS0_mfS0_mfPfmiiii(ptr noundef %0, i64 noundef %1, ptr noundef %2, i64 noundef %3, float noundef %4, ptr noundef %5, i64 noundef %6, float noundef %7, ptr noundef %8, i64 noundef %9, i32 noundef %10, i32 noundef %11, i32 noundef %12, i32 noundef %13) #7 comdat {
  %15 = alloca ptr, align 8
  %16 = alloca i64, align 8
  %17 = alloca ptr, align 8
  %18 = alloca i64, align 8
  %19 = alloca float, align 4
  %20 = alloca ptr, align 8
  %21 = alloca i64, align 8
  %22 = alloca float, align 4
  %23 = alloca ptr, align 8
  %24 = alloca i64, align 8
  %25 = alloca i32, align 4
  %26 = alloca i32, align 4
  %27 = alloca i32, align 4
  %28 = alloca i32, align 4
  store ptr %0, ptr %15, align 8, !tbaa !3
  store i64 %1, ptr %16, align 8, !tbaa !8
  store ptr %2, ptr %17, align 8, !tbaa !3
  store i64 %3, ptr %18, align 8, !tbaa !8
  store float %4, ptr %19, align 4, !tbaa !10
  store ptr %5, ptr %20, align 8, !tbaa !3
  store i64 %6, ptr %21, align 8, !tbaa !8
  store float %7, ptr %22, align 4, !tbaa !10
  store ptr %8, ptr %23, align 8, !tbaa !3
  store i64 %9, ptr %24, align 8, !tbaa !8
  store i32 %10, ptr %25, align 4, !tbaa !12
  store i32 %11, ptr %26, align 4, !tbaa !12
  store i32 %12, ptr %27, align 4, !tbaa !12
  store i32 %13, ptr %28, align 4, !tbaa !12
  ret i32 1
}

; Function Attrs: mustprogress uwtable
define void @_ZN2cv3hal7gemm32fEPKfmS2_mfS2_mfPfmiiii(ptr noundef %0, i64 noundef %1, ptr noundef %2, i64 noundef %3, float noundef %4, ptr noundef %5, i64 noundef %6, float noundef %7, ptr noundef %8, i64 noundef %9, i32 noundef %10, i32 noundef %11, i32 noundef %12, i32 noundef %13) #4 personality ptr @__gxx_personality_v0 {
  %15 = alloca ptr, align 8
  %16 = alloca i64, align 8
  %17 = alloca ptr, align 8
  %18 = alloca i64, align 8
  %19 = alloca float, align 4
  %20 = alloca ptr, align 8
  %21 = alloca i64, align 8
  %22 = alloca float, align 4
  %23 = alloca ptr, align 8
  %24 = alloca i64, align 8
  %25 = alloca i32, align 4
  %26 = alloca i32, align 4
  %27 = alloca i32, align 4
  %28 = alloca i32, align 4
  %29 = alloca %"class.cv::utils::trace::details::Region", align 8
  %30 = alloca i32, align 4
  %31 = alloca ptr, align 8
  %32 = alloca i32, align 4
  %33 = alloca i32, align 4
  %34 = alloca %"class.std::__cxx11::basic_string", align 8
  store ptr %0, ptr %15, align 8, !tbaa !3
  store i64 %1, ptr %16, align 8, !tbaa !8
  store ptr %2, ptr %17, align 8, !tbaa !3
  store i64 %3, ptr %18, align 8, !tbaa !8
  store float %4, ptr %19, align 4, !tbaa !10
  store ptr %5, ptr %20, align 8, !tbaa !3
  store i64 %6, ptr %21, align 8, !tbaa !8
  store float %7, ptr %22, align 4, !tbaa !10
  store ptr %8, ptr %23, align 8, !tbaa !3
  store i64 %9, ptr %24, align 8, !tbaa !8
  store i32 %10, ptr %25, align 4, !tbaa !12
  store i32 %11, ptr %26, align 4, !tbaa !12
  store i32 %12, ptr %27, align 4, !tbaa !12
  store i32 %13, ptr %28, align 4, !tbaa !12
  call void @llvm.lifetime.start.p0(i64 16, ptr %29) #3
  call void @_ZN2cv5utils5trace7details6RegionC1ERKNS3_21LocationStaticStorageE(ptr noundef nonnull align 8 dereferenceable(12) %29, ptr noundef nonnull align 8 dereferenceable(32) @_ZZN2cv3hal7gemm32fEPKfmS2_mfS2_mfPfmiiiiE25__cv_trace_location_fn284)
  call void @llvm.lifetime.start.p0(i64 4, ptr %30) #3
  %35 = load ptr, ptr %15, align 8, !tbaa !3
  %36 = load i64, ptr %16, align 8, !tbaa !8
  %37 = load ptr, ptr %17, align 8, !tbaa !3
  %38 = load i64, ptr %18, align 8, !tbaa !8
  %39 = load float, ptr %19, align 4, !tbaa !10
  %40 = load ptr, ptr %20, align 8, !tbaa !3
  %41 = load i64, ptr %21, align 8, !tbaa !8
  %42 = load float, ptr %22, align 4, !tbaa !10
  %43 = load ptr, ptr %23, align 8, !tbaa !3
  %44 = load i64, ptr %24, align 8, !tbaa !8
  %45 = load i32, ptr %25, align 4, !tbaa !12
  %46 = load i32, ptr %26, align 4, !tbaa !12
  %47 = load i32, ptr %27, align 4, !tbaa !12
  %48 = load i32, ptr %28, align 4, !tbaa !12
  %49 = invoke noundef i32 @_Z14hal_ni_gemm32fPKfmS0_mfS0_mfPfmiiii(ptr noundef %35, i64 noundef %36, ptr noundef %37, i64 noundef %38, float noundef %39, ptr noundef %40, i64 noundef %41, float noundef %42, ptr noundef %43, i64 noundef %44, i32 noundef %45, i32 noundef %46, i32 noundef %47, i32 noundef %48)
          to label %50 unwind label %54

50:                                               ; preds = %14
  store i32 %49, ptr %30, align 4, !tbaa !12
  %51 = load i32, ptr %30, align 4, !tbaa !12
  %52 = icmp eq i32 %51, 0
  br i1 %52, label %53, label %58

53:                                               ; preds = %50
  store i32 1, ptr %33, align 4
  br label %77

54:                                               ; preds = %14
  %55 = landingpad { ptr, i32 }
          cleanup
  %56 = extractvalue { ptr, i32 } %55, 0
  store ptr %56, ptr %31, align 8
  %57 = extractvalue { ptr, i32 } %55, 1
  store i32 %57, ptr %32, align 4
  br label %95

58:                                               ; preds = %50
  %59 = load i32, ptr %30, align 4, !tbaa !12
  %60 = icmp ne i32 %59, 1
  br i1 %60, label %61, label %75

61:                                               ; preds = %58
  call void @llvm.lifetime.start.p0(i64 32, ptr %34) #3
  %62 = load i32, ptr %30, align 4, !tbaa !12
  %63 = load i32, ptr %30, align 4, !tbaa !12
  invoke void (ptr, ptr, ...) @_ZN2cv6formatB5cxx11EPKcz(ptr dead_on_unwind writable sret(%"class.std::__cxx11::basic_string") align 8 %34, ptr noundef @.str.9, i32 noundef %62, i32 noundef %63)
          to label %64 unwind label %66

64:                                               ; preds = %61
  invoke void @_ZN2cv5errorEiRKNSt7__cxx1112basic_stringIcSt11char_traitsIcESaIcEEEPKcS9_i(i32 noundef -3, ptr noundef nonnull align 8 dereferenceable(32) %34, ptr noundef @__func__._ZN2cv3hal7gemm32fEPKfmS2_mfS2_mfPfmiiii, ptr noundef @.str.8, i32 noundef 285) #23
          to label %65 unwind label %70

65:                                               ; preds = %64
  unreachable

66:                                               ; preds = %61
  %67 = landingpad { ptr, i32 }
          cleanup
  %68 = extractvalue { ptr, i32 } %67, 0
  store ptr %68, ptr %31, align 8
  %69 = extractvalue { ptr, i32 } %67, 1
  store i32 %69, ptr %32, align 4
  br label %74

70:                                               ; preds = %64
  %71 = landingpad { ptr, i32 }
          cleanup
  %72 = extractvalue { ptr, i32 } %71, 0
  store ptr %72, ptr %31, align 8
  %73 = extractvalue { ptr, i32 } %71, 1
  store i32 %73, ptr %32, align 4
  call void @_ZNSt7__cxx1112basic_stringIcSt11char_traitsIcESaIcEED2Ev(ptr noundef nonnull align 8 dereferenceable(32) %34) #3
  br label %74

74:                                               ; preds = %70, %66
  call void @llvm.lifetime.end.p0(i64 32, ptr %34) #3
  br label %95

75:                                               ; preds = %58
  br label %76

76:                                               ; preds = %75
  store i32 0, ptr %33, align 4
  br label %77

77:                                               ; preds = %76, %53
  call void @llvm.lifetime.end.p0(i64 4, ptr %30) #3
  %78 = load i32, ptr %33, align 4
  switch i32 %78, label %100 [
    i32 0, label %79
  ]

79:                                               ; preds = %77
  %80 = load ptr, ptr %15, align 8, !tbaa !3
  %81 = load i64, ptr %16, align 8, !tbaa !8
  %82 = load ptr, ptr %17, align 8, !tbaa !3
  %83 = load i64, ptr %18, align 8, !tbaa !8
  %84 = load float, ptr %19, align 4, !tbaa !10
  %85 = load ptr, ptr %20, align 8, !tbaa !3
  %86 = load i64, ptr %21, align 8, !tbaa !8
  %87 = load float, ptr %22, align 4, !tbaa !10
  %88 = load ptr, ptr %23, align 8, !tbaa !3
  %89 = load i64, ptr %24, align 8, !tbaa !8
  %90 = load i32, ptr %25, align 4, !tbaa !12
  %91 = load i32, ptr %26, align 4, !tbaa !12
  %92 = load i32, ptr %27, align 4, !tbaa !12
  %93 = load i32, ptr %28, align 4, !tbaa !12
  invoke void @_ZN2cv12cpu_baseline7gemm32fEPKfmS2_mfS2_mfPfmiiii(ptr noundef %80, i64 noundef %81, ptr noundef %82, i64 noundef %83, float noundef %84, ptr noundef %85, i64 noundef %86, float noundef %87, ptr noundef %88, i64 noundef %89, i32 noundef %90, i32 noundef %91, i32 noundef %92, i32 noundef %93)
          to label %94 unwind label %96

94:                                               ; preds = %79
  store i32 1, ptr %33, align 4
  br label %100

95:                                               ; preds = %74, %54
  call void @llvm.lifetime.end.p0(i64 4, ptr %30) #3
  br label %101

96:                                               ; preds = %79
  %97 = landingpad { ptr, i32 }
          cleanup
  %98 = extractvalue { ptr, i32 } %97, 0
  store ptr %98, ptr %31, align 8
  %99 = extractvalue { ptr, i32 } %97, 1
  store i32 %99, ptr %32, align 4
  br label %101

100:                                              ; preds = %94, %77
  call void @_ZN2cv5utils5trace7details6RegionD2Ev(ptr noundef nonnull align 8 dereferenceable(12) %29) #3
  call void @llvm.lifetime.end.p0(i64 16, ptr %29) #3
  ret void

101:                                              ; preds = %96, %95
  call void @_ZN2cv5utils5trace7details6RegionD2Ev(ptr noundef nonnull align 8 dereferenceable(12) %29) #3
  call void @llvm.lifetime.end.p0(i64 16, ptr %29) #3
  br label %102

102:                                              ; preds = %101
  %103 = load ptr, ptr %31, align 8
  %104 = load i32, ptr %32, align 4
  %105 = insertvalue { ptr, i32 } poison, ptr %103, 0
  %106 = insertvalue { ptr, i32 } %105, i32 %104, 1
  resume { ptr, i32 } %106
}